target datalayout = "e-m:e-p270:32:32-p271:32:32-p272:64:64-i64:64-i128:128-f80:128-n8:16:32:64-S128"
target triple = "x86_64-pc-linux-gnu"

; Function Attrs: nounwind uwtable
define internal void @gmc1_c(ptr noundef %0, ptr noundef %1, i32 noundef %2, i32 noundef %3, i32 noundef %4, i32 noundef %5, i32 noundef %6) #0 {
  %8 = alloca ptr, align 8
  %9 = alloca ptr, align 8
  %10 = alloca i32, align 4
  %11 = alloca i32, align 4
  %12 = alloca i32, align 4
  %13 = alloca i32, align 4
  %14 = alloca i32, align 4
  %15 = alloca i32, align 4
  %16 = alloca i32, align 4
  %17 = alloca i32, align 4
  %18 = alloca i32, align 4
  %19 = alloca i32, align 4
  store ptr %0, ptr %8, align 8, !tbaa !4
  store ptr %1, ptr %9, align 8, !tbaa !4
  store i32 %2, ptr %10, align 4, !tbaa !9
  store i32 %3, ptr %11, align 4, !tbaa !9
  store i32 %4, ptr %12, align 4, !tbaa !9
  store i32 %5, ptr %13, align 4, !tbaa !9
  store i32 %6, ptr %14, align 4, !tbaa !9
  call void @llvm.lifetime.start.p0(i64 4, ptr %15) #4
  %20 = load i32, ptr %12, align 4, !tbaa !9
  %21 = sub nsw i32 16, %20
  %22 = load i32, ptr %13, align 4, !tbaa !9
  %23 = sub nsw i32 16, %22
  %24 = mul nsw i32 %21, %23
  store i32 %24, ptr %15, align 4, !tbaa !9
  call void @llvm.lifetime.start.p0(i64 4, ptr %16) #4
  %25 = load i32, ptr %12, align 4, !tbaa !9
  %26 = load i32, ptr %13, align 4, !tbaa !9
  %27 = sub nsw i32 16, %26
  %28 = mul nsw i32 %25, %27
  store i32 %28, ptr %16, align 4, !tbaa !9
  call void @llvm.lifetime.start.p0(i64 4, ptr %17) #4
  %29 = load i32, ptr %12, align 4, !tbaa !9
  %30 = sub nsw i32 16, %29
  %31 = load i32, ptr %13, align 4, !tbaa !9
  %32 = mul nsw i32 %30, %31
  store i32 %32, ptr %17, align 4, !tbaa !9
  call void @llvm.lifetime.start.p0(i64 4, ptr %18) #4
  %33 = load i32, ptr %12, align 4, !tbaa !9
  %34 = load i32, ptr %13, align 4, !tbaa !9
  %35 = mul nsw i32 %33, %34
  store i32 %35, ptr %18, align 4, !tbaa !9
  call void @llvm.lifetime.start.p0(i64 4, ptr %19) #4
  store i32 0, ptr %19, align 4, !tbaa !9
  br label %36

36:                                               ; preds = %361, %7
  %37 = load i32, ptr %19, align 4, !tbaa !9
  %38 = load i32, ptr %11, align 4, !tbaa !9
  %39 = icmp slt i32 %37, %38
  br i1 %39, label %40, label %364

40:                                               ; preds = %36
  %41 = load i32, ptr %15, align 4, !tbaa !9
  %42 = load ptr, ptr %9, align 8, !tbaa !4
  %43 = getelementptr inbounds i8, ptr %42, i64 0
  %44 = load i8, ptr %43, align 1, !tbaa !11
  %45 = zext i8 %44 to i32
  %46 = mul nsw i32 %41, %45
  %47 = load i32, ptr %16, align 4, !tbaa !9
  %48 = load ptr, ptr %9, align 8, !tbaa !4
  %49 = getelementptr inbounds i8, ptr %48, i64 1
  %50 = load i8, ptr %49, align 1, !tbaa !11
  %51 = zext i8 %50 to i32
  %52 = mul nsw i32 %47, %51
  %53 = add nsw i32 %46, %52
  %54 = load i32, ptr %17, align 4, !tbaa !9
  %55 = load ptr, ptr %9, align 8, !tbaa !4
  %56 = load i32, ptr %10, align 4, !tbaa !9
  %57 = add nsw i32 %56, 0
  %58 = sext i32 %57 to i64
  %59 = getelementptr inbounds i8, ptr %55, i64 %58
  %60 = load i8, ptr %59, align 1, !tbaa !11
  %61 = zext i8 %60 to i32
  %62 = mul nsw i32 %54, %61
  %63 = add nsw i32 %53, %62
  %64 = load i32, ptr %18, align 4, !tbaa !9
  %65 = load ptr, ptr %9, align 8, !tbaa !4
  %66 = load i32, ptr %10, align 4, !tbaa !9
  %67 = add nsw i32 %66, 1
  %68 = sext i32 %67 to i64
  %69 = getelementptr inbounds i8, ptr %65, i64 %68
  %70 = load i8, ptr %69, align 1, !tbaa !11
  %71 = zext i8 %70 to i32
  %72 = mul nsw i32 %64, %71
  %73 = add nsw i32 %63, %72
  %74 = load i32, ptr %14, align 4, !tbaa !9
  %75 = add nsw i32 %73, %74
  %76 = ashr i32 %75, 8
  %77 = trunc i32 %76 to i8
  %78 = load ptr, ptr %8, align 8, !tbaa !4
  %79 = getelementptr inbounds i8, ptr %78, i64 0
  store i8 %77, ptr %79, align 1, !tbaa !11
  %80 = load i32, ptr %15, align 4, !tbaa !9
  %81 = load ptr, ptr %9, align 8, !tbaa !4
  %82 = getelementptr inbounds i8, ptr %81, i64 1
  %83 = load i8, ptr %82, align 1, !tbaa !11
  %84 = zext i8 %83 to i32
  %85 = mul nsw i32 %80, %84
  %86 = load i32, ptr %16, align 4, !tbaa !9
  %87 = load ptr, ptr %9, align 8, !tbaa !4
  %88 = getelementptr inbounds i8, ptr %87, i64 2
  %89 = load i8, ptr %88, align 1, !tbaa !11
  %90 = zext i8 %89 to i32
  %91 = mul nsw i32 %86, %90
  %92 = add nsw i32 %85, %91
  %93 = load i32, ptr %17, align 4, !tbaa !9
  %94 = load ptr, ptr %9, align 8, !tbaa !4
  %95 = load i32, ptr %10, align 4, !tbaa !9
  %96 = add nsw i32 %95, 1
  %97 = sext i32 %96 to i64
  %98 = getelementptr inbounds i8, ptr %94, i64 %97
  %99 = load i8, ptr %98, align 1, !tbaa !11
  %100 = zext i8 %99 to i32
  %101 = mul nsw i32 %93, %100
  %102 = add nsw i32 %92, %101
  %103 = load i32, ptr %18, align 4, !tbaa !9
  %104 = load ptr, ptr %9, align 8, !tbaa !4
  %105 = load i32, ptr %10, align 4, !tbaa !9
  %106 = add nsw i32 %105, 2
  %107 = sext i32 %106 to i64
  %108 = getelementptr inbounds i8, ptr %104, i64 %107
  %109 = load i8, ptr %108, align 1, !tbaa !11
  %110 = zext i8 %109 to i32
  %111 = mul nsw i32 %103, %110
  %112 = add nsw i32 %102, %111
  %113 = load i32, ptr %14, align 4, !tbaa !9
  %114 = add nsw i32 %112, %113
  %115 = ashr i32 %114, 8
  %116 = trunc i32 %115 to i8
  %117 = load ptr, ptr %8, align 8, !tbaa !4
  %118 = getelementptr inbounds i8, ptr %117, i64 1
  store i8 %116, ptr %118, align 1, !tbaa !11
  %119 = load i32, ptr %15, align 4, !tbaa !9
  %120 = load ptr, ptr %9, align 8, !tbaa !4
  %121 = getelementptr inbounds i8, ptr %120, i64 2
  %122 = load i8, ptr %121, align 1, !tbaa !11
  %123 = zext i8 %122 to i32
  %124 = mul nsw i32 %119, %123
  %125 = load i32, ptr %16, align 4, !tbaa !9
  %126 = load ptr, ptr %9, align 8, !tbaa !4
  %127 = getelementptr inbounds i8, ptr %126, i64 3
  %128 = load i8, ptr %127, align 1, !tbaa !11
  %129 = zext i8 %128 to i32
  %130 = mul nsw i32 %125, %129
  %131 = add nsw i32 %124, %130
  %132 = load i32, ptr %17, align 4, !tbaa !9
  %133 = load ptr, ptr %9, align 8, !tbaa !4
  %134 = load i32, ptr %10, align 4, !tbaa !9
  %135 = add nsw i32 %134, 2
  %136 = sext i32 %135 to i64
  %137 = getelementptr inbounds i8, ptr %133, i64 %136
  %138 = load i8, ptr %137, align 1, !tbaa !11
  %139 = zext i8 %138 to i32
  %140 = mul nsw i32 %132, %139
  %141 = add nsw i32 %131, %140
  %142 = load i32, ptr %18, align 4, !tbaa !9
  %143 = load ptr, ptr %9, align 8, !tbaa !4
  %144 = load i32, ptr %10, align 4, !tbaa !9
  %145 = add nsw i32 %144, 3
  %146 = sext i32 %145 to i64
  %147 = getelementptr inbounds i8, ptr %143, i64 %146
  %148 = load i8, ptr %147, align 1, !tbaa !11
  %149 = zext i8 %148 to i32
  %150 = mul nsw i32 %142, %149
  %151 = add nsw i32 %141, %150
  %152 = load i32, ptr %14, align 4, !tbaa !9
  %153 = add nsw i32 %151, %152
  %154 = ashr i32 %153, 8
  %155 = trunc i32 %154 to i8
  %156 = load ptr, ptr %8, align 8, !tbaa !4
  %157 = getelementptr inbounds i8, ptr %156, i64 2
  store i8 %155, ptr %157, align 1, !tbaa !11
  %158 = load i32, ptr %15, align 4, !tbaa !9
  %159 = load ptr, ptr %9, align 8, !tbaa !4
  %160 = getelementptr inbounds i8, ptr %159, i64 3
  %161 = load i8, ptr %160, align 1, !tbaa !11
  %162 = zext i8 %161 to i32
  %163 = mul nsw i32 %158, %162
  %164 = load i32, ptr %16, align 4, !tbaa !9
  %165 = load ptr, ptr %9, align 8, !tbaa !4
  %166 = getelementptr inbounds i8, ptr %165, i64 4
  %167 = load i8, ptr %166, align 1, !tbaa !11
  %168 = zext i8 %167 to i32
  %169 = mul nsw i32 %164, %168
  %170 = add nsw i32 %163, %169
  %171 = load i32, ptr %17, align 4, !tbaa !9
  %172 = load ptr, ptr %9, align 8, !tbaa !4
  %173 = load i32, ptr %10, align 4, !tbaa !9
  %174 = add nsw i32 %173, 3
  %175 = sext i32 %174 to i64
  %176 = getelementptr inbounds i8, ptr %172, i64 %175
  %177 = load i8, ptr %176, align 1, !tbaa !11
  %178 = zext i8 %177 to i32
  %179 = mul nsw i32 %171, %178
  %180 = add nsw i32 %170, %179
  %181 = load i32, ptr %18, align 4, !tbaa !9
  %182 = load ptr, ptr %9, align 8, !tbaa !4
  %183 = load i32, ptr %10, align 4, !tbaa !9
  %184 = add nsw i32 %183, 4
  %185 = sext i32 %184 to i64
  %186 = getelementptr inbounds i8, ptr %182, i64 %185
  %187 = load i8, ptr %186, align 1, !tbaa !11
  %188 = zext i8 %187 to i32
  %189 = mul nsw i32 %181, %188
  %190 = add nsw i32 %180, %189
  %191 = load i32, ptr %14, align 4, !tbaa !9
  %192 = add nsw i32 %190, %191
  %193 = ashr i32 %192, 8
  %194 = trunc i32 %193 to i8
  %195 = load ptr, ptr %8, align 8, !tbaa !4
  %196 = getelementptr inbounds i8, ptr %195, i64 3
  store i8 %194, ptr %196, align 1, !tbaa !11
  %197 = load i32, ptr %15, align 4, !tbaa !9
  %198 = load ptr, ptr %9, align 8, !tbaa !4
  %199 = getelementptr inbounds i8, ptr %198, i64 4
  %200 = load i8, ptr %199, align 1, !tbaa !11
  %201 = zext i8 %200 to i32
  %202 = mul nsw i32 %197, %201
  %203 = load i32, ptr %16, align 4, !tbaa !9
  %204 = load ptr, ptr %9, align 8, !tbaa !4
  %205 = getelementptr inbounds i8, ptr %204, i64 5
  %206 = load i8, ptr %205, align 1, !tbaa !11
  %207 = zext i8 %206 to i32
  %208 = mul nsw i32 %203, %207
  %209 = add nsw i32 %202, %208
  %210 = load i32, ptr %17, align 4, !tbaa !9
  %211 = load ptr, ptr %9, align 8, !tbaa !4
  %212 = load i32, ptr %10, align 4, !tbaa !9
  %213 = add nsw i32 %212, 4
  %214 = sext i32 %213 to i64
  %215 = getelementptr inbounds i8, ptr %211, i64 %214
  %216 = load i8, ptr %215, align 1, !tbaa !11
  %217 = zext i8 %216 to i32
  %218 = mul nsw i32 %210, %217
  %219 = add nsw i32 %209, %218
  %220 = load i32, ptr %18, align 4, !tbaa !9
  %221 = load ptr, ptr %9, align 8, !tbaa !4
  %222 = load i32, ptr %10, align 4, !tbaa !9
  %223 = add nsw i32 %222, 5
  %224 = sext i32 %223 to i64
  %225 = getelementptr inbounds i8, ptr %221, i64 %224
  %226 = load i8, ptr %225, align 1, !tbaa !11
  %227 = zext i8 %226 to i32
  %228 = mul nsw i32 %220, %227
  %229 = add nsw i32 %219, %228
  %230 = load i32, ptr %14, align 4, !tbaa !9
  %231 = add nsw i32 %229, %230
  %232 = ashr i32 %231, 8
  %233 = trunc i32 %232 to i8
  %234 = load ptr, ptr %8, align 8, !tbaa !4
  %235 = getelementptr inbounds i8, ptr %234, i64 4
  store i8 %233, ptr %235, align 1, !tbaa !11
  %236 = load i32, ptr %15, align 4, !tbaa !9
  %237 = load ptr, ptr %9, align 8, !tbaa !4
  %238 = getelementptr inbounds i8, ptr %237, i64 5
  %239 = load i8, ptr %238, align 1, !tbaa !11
  %240 = zext i8 %239 to i32
  %241 = mul nsw i32 %236, %240
  %242 = load i32, ptr %16, align 4, !tbaa !9
  %243 = load ptr, ptr %9, align 8, !tbaa !4
  %244 = getelementptr inbounds i8, ptr %243, i64 6
  %245 = load i8, ptr %244, align 1, !tbaa !11
  %246 = zext i8 %245 to i32
  %247 = mul nsw i32 %242, %246
  %248 = add nsw i32 %241, %247
  %249 = load i32, ptr %17, align 4, !tbaa !9
  %250 = load ptr, ptr %9, align 8, !tbaa !4
  %251 = load i32, ptr %10, align 4, !tbaa !9
  %252 = add nsw i32 %251, 5
  %253 = sext i32 %252 to i64
  %254 = getelementptr inbounds i8, ptr %250, i64 %253
  %255 = load i8, ptr %254, align 1, !tbaa !11
  %256 = zext i8 %255 to i32
  %257 = mul nsw i32 %249, %256
  %258 = add nsw i32 %248, %257
  %259 = load i32, ptr %18, align 4, !tbaa !9
  %260 = load ptr, ptr %9, align 8, !tbaa !4
  %261 = load i32, ptr %10, align 4, !tbaa !9
  %262 = add nsw i32 %261, 6
  %263 = sext i32 %262 to i64
  %264 = getelementptr inbounds i8, ptr %260, i64 %263
  %265 = load i8, ptr %264, align 1, !tbaa !11
  %266 = zext i8 %265 to i32
  %267 = mul nsw i32 %259, %266
  %268 = add nsw i32 %258, %267
  %269 = load i32, ptr %14, align 4, !tbaa !9
  %270 = add nsw i32 %268, %269
  %271 = ashr i32 %270, 8
  %272 = trunc i32 %271 to i8
  %273 = load ptr, ptr %8, align 8, !tbaa !4
  %274 = getelementptr inbounds i8, ptr %273, i64 5
  store i8 %272, ptr %274, align 1, !tbaa !11
  %275 = load i32, ptr %15, align 4, !tbaa !9
  %276 = load ptr, ptr %9, align 8, !tbaa !4
  %277 = getelementptr inbounds i8, ptr %276, i64 6
  %278 = load i8, ptr %277, align 1, !tbaa !11
  %279 = zext i8 %278 to i32
  %280 = mul nsw i32 %275, %279
  %281 = load i32, ptr %16, align 4, !tbaa !9
  %282 = load ptr, ptr %9, align 8, !tbaa !4
  %283 = getelementptr inbounds i8, ptr %282, i64 7
  %284 = load i8, ptr %283, align 1, !tbaa !11
  %285 = zext i8 %284 to i32
  %286 = mul nsw i32 %281, %285
  %287 = add nsw i32 %280, %286
  %288 = load i32, ptr %17, align 4, !tbaa !9
  %289 = load ptr, ptr %9, align 8, !tbaa !4
  %290 = load i32, ptr %10, align 4, !tbaa !9
  %291 = add nsw i32 %290, 6
  %292 = sext i32 %291 to i64
  %293 = getelementptr inbounds i8, ptr %289, i64 %292
  %294 = load i8, ptr %293, align 1, !tbaa !11
  %295 = zext i8 %294 to i32
  %296 = mul nsw i32 %288, %295
  %297 = add nsw i32 %287, %296
  %298 = load i32, ptr %18, align 4, !tbaa !9
  %299 = load ptr, ptr %9, align 8, !tbaa !4
  %300 = load i32, ptr %10, align 4, !tbaa !9
  %301 = add nsw i32 %300, 7
  %302 = sext i32 %301 to i64
  %303 = getelementptr inbounds i8, ptr %299, i64 %302
  %304 = load i8, ptr %303, align 1, !tbaa !11
  %305 = zext i8 %304 to i32
  %306 = mul nsw i32 %298, %305
  %307 = add nsw i32 %297, %306
  %308 = load i32, ptr %14, align 4, !tbaa !9
  %309 = add nsw i32 %307, %308
  %310 = ashr i32 %309, 8
  %311 = trunc i32 %310 to i8
  %312 = load ptr, ptr %8, align 8, !tbaa !4
  %313 = getelementptr inbounds i8, ptr %312, i64 6
  store i8 %311, ptr %313, align 1, !tbaa !11
  %314 = load i32, ptr %15, align 4, !tbaa !9
  %315 = load ptr, ptr %9, align 8, !tbaa !4
  %316 = getelementptr inbounds i8, ptr %315, i64 7
  %317 = load i8, ptr %316, align 1, !tbaa !11
  %318 = zext i8 %317 to i32
  %319 = mul nsw i32 %314, %318
  %320 = load i32, ptr %16, align 4, !tbaa !9
  %321 = load ptr, ptr %9, align 8, !tbaa !4
  %322 = getelementptr inbounds i8, ptr %321, i64 8
  %323 = load i8, ptr %322, align 1, !tbaa !11
  %324 = zext i8 %323 to i32
  %325 = mul nsw i32 %320, %324
  %326 = add nsw i32 %319, %325
  %327 = load i32, ptr %17, align 4, !tbaa !9
  %328 = load ptr, ptr %9, align 8, !tbaa !4
  %329 = load i32, ptr %10, align 4, !tbaa !9
  %330 = add nsw i32 %329, 7
  %331 = sext i32 %330 to i64
  %332 = getelementptr inbounds i8, ptr %328, i64 %331
  %333 = load i8, ptr %332, align 1, !tbaa !11
  %334 = zext i8 %333 to i32
  %335 = mul nsw i32 %327, %334
  %336 = add nsw i32 %326, %335
  %337 = load i32, ptr %18, align 4, !tbaa !9
  %338 = load ptr, ptr %9, align 8, !tbaa !4
  %339 = load i32, ptr %10, align 4, !tbaa !9
  %340 = add nsw i32 %339, 8
  %341 = sext i32 %340 to i64
  %342 = getelementptr inbounds i8, ptr %338, i64 %341
  %343 = load i8, ptr %342, align 1, !tbaa !11
  %344 = zext i8 %343 to i32
  %345 = mul nsw i32 %337, %344
  %346 = add nsw i32 %336, %345
  %347 = load i32, ptr %14, align 4, !tbaa !9
  %348 = add nsw i32 %346, %347
  %349 = ashr i32 %348, 8
  %350 = trunc i32 %349 to i8
  %351 = load ptr, ptr %8, align 8, !tbaa !4
  %352 = getelementptr inbounds i8, ptr %351, i64 7
  store i8 %350, ptr %352, align 1, !tbaa !11
  %353 = load i32, ptr %10, align 4, !tbaa !9
  %354 = load ptr, ptr %8, align 8, !tbaa !4
  %355 = sext i32 %353 to i64
  %356 = getelementptr inbounds i8, ptr %354, i64 %355
  store ptr %356, ptr %8, align 8, !tbaa !4
  %357 = load i32, ptr %10, align 4, !tbaa !9
  %358 = load ptr, ptr %9, align 8, !tbaa !4
  %359 = sext i32 %357 to i64
  %360 = getelementptr inbounds i8, ptr %358, i64 %359
  store ptr %360, ptr %9, align 8, !tbaa !4
  br label %361

361:                                              ; preds = %40
  %362 = load i32, ptr %19, align 4, !tbaa !9
  %363 = add nsw i32 %362, 1
  store i32 %363, ptr %19, align 4, !tbaa !9
  br label %36, !llvm.loop !20

364:                                              ; preds = %36
  call void @llvm.lifetime.end.p0(i64 4, ptr %19) #4
  call void @llvm.lifetime.end.p0(i64 4, ptr %18) #4
  call void @llvm.lifetime.end.p0(i64 4, ptr %17) #4
  call void @llvm.lifetime.end.p0(i64 4, ptr %16) #4
  call void @llvm.lifetime.end.p0(i64 4, ptr %15) #4
  ret void
}